target datalayout = "e-m:e-p270:32:32-p271:32:32-p272:64:64-i64:64-i128:128-f80:128-n8:16:32:64-S128"
target triple = "x86_64-pc-linux-gnu"

%struct.wtap = type { ptr, ptr, i8, i32, i32, ptr, ptr, ptr, i32, ptr, ptr, ptr, ptr, ptr, ptr, ptr, ptr, ptr, ptr, i32, i32, ptr, ptr, ptr, ptr }

@.str.1 = private unnamed_addr constant [6 x i8] c"l2-tx\00", align 1
@.str.2 = private unnamed_addr constant [6 x i8] c"l2-rx\00", align 1

; Function Attrs: null_pointer_is_valid sspstrong uwtable
define internal i64 @cosine_seek_next_packet(ptr noundef %0, ptr noundef %1, ptr noundef %2, ptr noundef %3) #0 {
  %5 = alloca i64, align 8
  %6 = alloca ptr, align 8
  %7 = alloca ptr, align 8
  %8 = alloca ptr, align 8
  %9 = alloca ptr, align 8
  %10 = alloca i64, align 8
  %11 = alloca [240 x i8], align 16
  %12 = alloca i32, align 4
  store ptr %0, ptr %6, align 8
  store ptr %1, ptr %7, align 8
  store ptr %2, ptr %8, align 8
  store ptr %3, ptr %9, align 8
  call void @llvm.lifetime.start.p0(i64 8, ptr %10) #8
  call void @llvm.lifetime.start.p0(i64 240, ptr %11) #8
  br label %13

13:                                               ; preds = %55, %4
  br label %14

14:                                               ; preds = %13
  %15 = load ptr, ptr %6, align 8
  %16 = getelementptr inbounds nuw %struct.wtap, ptr %15, i32 0, i32 0
  %17 = load ptr, ptr %16, align 8
  %18 = call i64 @file_tell(ptr noundef %17)
  store i64 %18, ptr %10, align 8
  %19 = load i64, ptr %10, align 8
  %20 = icmp eq i64 %19, -1
  br i1 %20, label %21, label %28

21:                                               ; preds = %14
  %22 = load ptr, ptr %6, align 8
  %23 = getelementptr inbounds nuw %struct.wtap, ptr %22, i32 0, i32 0
  %24 = load ptr, ptr %23, align 8
  %25 = load ptr, ptr %8, align 8
  %26 = call i32 @file_error(ptr noundef %24, ptr noundef %25)
  %27 = load ptr, ptr %7, align 8
  store i32 %26, ptr %27, align 4
  store i64 -1, ptr %5, align 8
  store i32 1, ptr %12, align 4
  br label %56

28:                                               ; preds = %14
  %29 = getelementptr inbounds [240 x i8], ptr %11, i64 0, i64 0
  %30 = load ptr, ptr %6, align 8
  %31 = getelementptr inbounds nuw %struct.wtap, ptr %30, i32 0, i32 0
  %32 = load ptr, ptr %31, align 8
  %33 = call ptr @file_gets(ptr noundef %29, i32 noundef 240, ptr noundef %32)
  %34 = icmp eq ptr %33, null
  br i1 %34, label %35, label %42

35:                                               ; preds = %28
  %36 = load ptr, ptr %6, align 8
  %37 = getelementptr inbounds nuw %struct.wtap, ptr %36, i32 0, i32 0
  %38 = load ptr, ptr %37, align 8
  %39 = load ptr, ptr %8, align 8
  %40 = call i32 @file_error(ptr noundef %38, ptr noundef %39)
  %41 = load ptr, ptr %7, align 8
  store i32 %40, ptr %41, align 4
  store i64 -1, ptr %5, align 8
  store i32 1, ptr %12, align 4
  br label %56

42:                                               ; preds = %28
  %43 = getelementptr inbounds [240 x i8], ptr %11, i64 0, i64 0
  %44 = call ptr @strstr(ptr noundef %43, ptr noundef @.str.1) #9
  %45 = icmp ne ptr %44, null
  br i1 %45, label %50, label %46

46:                                               ; preds = %42
  %47 = getelementptr inbounds [240 x i8], ptr %11, i64 0, i64 0
  %48 = call ptr @strstr(ptr noundef %47, ptr noundef @.str.2) #9
  %49 = icmp ne ptr %48, null
  br i1 %49, label %50, label %55

50:                                               ; preds = %46, %42
  %51 = load ptr, ptr %9, align 8
  %52 = getelementptr inbounds [240 x i8], ptr %11, i64 0, i64 0
  %53 = call i64 @g_strlcpy(ptr noundef %51, ptr noundef %52, i64 noundef 240)
  %54 = load i64, ptr %10, align 8
  store i64 %54, ptr %5, align 8
  store i32 1, ptr %12, align 4
  br label %56

55:                                               ; preds = %46
  br label %13

56:                                               ; preds = %50, %35, %21
  call void @llvm.lifetime.end.p0(i64 240, ptr %11) #8
  call void @llvm.lifetime.end.p0(i64 8, ptr %10) #8
  %57 = load i64, ptr %5, align 8
  ret i64 %57
}

; Function Attrs: null_pointer_is_valid sspstrong uwtable
define internal zeroext i1 @cosine_read(ptr noundef %0, ptr noundef %1, ptr noundef %2, ptr noundef %3, ptr noundef %4) #0 {
  %6 = alloca i1, align 1
  %7 = alloca ptr, align 8
  %8 = alloca ptr, align 8
  %9 = alloca ptr, align 8
  %10 = alloca ptr, align 8
  %11 = alloca ptr, align 8
  %12 = alloca i64, align 8
  %13 = alloca [240 x i8], align 16
  %14 = alloca i32, align 4
  store ptr %0, ptr %7, align 8
  store ptr %1, ptr %8, align 8
  store ptr %2, ptr %9, align 8
  store ptr %3, ptr %10, align 8
  store ptr %4, ptr %11, align 8
  call void @llvm.lifetime.start.p0(i64 8, ptr %12) #8
  call void @llvm.lifetime.start.p0(i64 240, ptr %13) #8
  %15 = load ptr, ptr %7, align 8
  %16 = load ptr, ptr %9, align 8
  %17 = load ptr, ptr %10, align 8
  %18 = getelementptr inbounds [240 x i8], ptr %13, i64 0, i64 0
  %19 = call i64 @cosine_seek_next_packet(ptr noundef %15, ptr noundef %16, ptr noundef %17, ptr noundef %18)
  store i64 %19, ptr %12, align 8
  %20 = load i64, ptr %12, align 8
  %21 = icmp slt i64 %20, 0
  br i1 %21, label %22, label %23

22:                                               ; preds = %5
  store i1 false, ptr %6, align 1
  store i32 1, ptr %14, align 4
  br label %34

23:                                               ; preds = %5
  %24 = load i64, ptr %12, align 8
  %25 = load ptr, ptr %11, align 8
  store i64 %24, ptr %25, align 8
  %26 = load ptr, ptr %7, align 8
  %27 = getelementptr inbounds nuw %struct.wtap, ptr %26, i32 0, i32 0
  %28 = load ptr, ptr %27, align 8
  %29 = load ptr, ptr %8, align 8
  %30 = getelementptr inbounds [240 x i8], ptr %13, i64 0, i64 0
  %31 = load ptr, ptr %9, align 8
  %32 = load ptr, ptr %10, align 8
  %33 = call zeroext i1 @parse_cosine_packet(ptr noundef %28, ptr noundef %29, ptr noundef %30, ptr noundef %31, ptr noundef %32)
  store i1 %33, ptr %6, align 1
  store i32 1, ptr %14, align 4
  br label %34

34:                                               ; preds = %23, %22
  call void @llvm.lifetime.end.p0(i64 240, ptr %13) #8
  call void @llvm.lifetime.end.p0(i64 8, ptr %12) #8
  %35 = load i1, ptr %6, align 1
  ret i1 %35
}